; Function Attrs: nofree norecurse nosync nounwind memory(readwrite, inaccessiblemem: none) uwtable
define void @Kit_SopCreate(ptr noundef captures(none) initializes((4, 16)) %0, ptr noundef readonly captures(none) %1, i32 noundef %2, ptr noundef captures(none) %3) local_unnamed_addr #0 {
  %5 = getelementptr inbounds nuw i8, ptr %0, i64 4
  store i32 0, ptr %5, align 4, !tbaa !3
  %6 = getelementptr i8, ptr %1, i64 4
  %.val = load i32, ptr %6, align 4, !tbaa !10
  %7 = icmp eq i32 %.val, 0
  br i1 %7, label %Vec_IntFetch.exit.thread, label %9

Vec_IntFetch.exit.thread:                         ; preds = %4
  %8 = getelementptr inbounds nuw i8, ptr %0, i64 8
  store ptr null, ptr %8, align 8, !tbaa !12
  br label %.critedge

9:                                                ; preds = %4
  %10 = getelementptr inbounds nuw i8, ptr %3, i64 4
  %11 = load i32, ptr %10, align 4, !tbaa !10
  %12 = add nsw i32 %11, %.val
  store i32 %12, ptr %10, align 4, !tbaa !10
  %13 = load i32, ptr %3, align 8, !tbaa !13
  %14 = icmp sgt i32 %12, %13
  br i1 %14, label %Vec_IntFetch.exit, label %15

15:                                               ; preds = %9
  %16 = getelementptr inbounds nuw i8, ptr %3, i64 8
  %17 = load ptr, ptr %16, align 8, !tbaa !14
  %18 = sext i32 %12 to i64
  %19 = getelementptr inbounds i32, ptr %17, i64 %18
  %20 = sext i32 %.val to i64
  %21 = sub nsw i64 0, %20
  %22 = getelementptr inbounds i32, ptr %19, i64 %21
  br label %Vec_IntFetch.exit

Vec_IntFetch.exit:                                ; preds = %9, %15
  %.0.i.ph = phi ptr [ null, %9 ], [ %22, %15 ]
  %.val1012.pr = load i32, ptr %6, align 4, !tbaa !10
  %23 = getelementptr inbounds nuw i8, ptr %0, i64 8
  store ptr %.0.i.ph, ptr %23, align 8, !tbaa !12
  %24 = icmp sgt i32 %.val1012.pr, 0
  br i1 %24, label %.lr.ph, label %.critedge

.lr.ph:                                           ; preds = %Vec_IntFetch.exit
  %25 = getelementptr i8, ptr %1, i64 8
  %.val11 = load ptr, ptr %25, align 8, !tbaa !14
  br label %26

26:                                               ; preds = %.lr.ph, %26
  %indvars.iv = phi i64 [ 0, %.lr.ph ], [ %indvars.iv.next, %26 ]
  %27 = getelementptr inbounds nuw i32, ptr %.val11, i64 %indvars.iv
  %28 = load i32, ptr %27, align 4, !tbaa !15
  %29 = load i32, ptr %5, align 4, !tbaa !3
  %30 = add nsw i32 %29, 1
  store i32 %30, ptr %5, align 4, !tbaa !3
  %31 = sext i32 %29 to i64
  %32 = getelementptr inbounds i32, ptr %.0.i.ph, i64 %31
  store i32 %28, ptr %32, align 4, !tbaa !15
  %indvars.iv.next = add nuw nsw i64 %indvars.iv, 1
  %.val10 = load i32, ptr %6, align 4, !tbaa !10
  %33 = sext i32 %.val10 to i64
  %34 = icmp slt i64 %indvars.iv.next, %33
  br i1 %34, label %26, label %.critedge, !llvm.loop !16

.critedge:                                        ; preds = %26, %Vec_IntFetch.exit.thread, %Vec_IntFetch.exit
  ret void
}